Certificate:
    Data:
        Version: 1 (0x0)
        Serial Number: 1 (0x1)
        Signature Algorithm: sha256WithRSAEncryption
        Issuer: C=DK, ST=Some-State, O=Private, CN=ginner
        Validity
            Not Before: Nov  2 20:18:06 2023 GMT
            Not After : Nov  1 20:18:06 2024 GMT
        Subject: C=DK, ST=Some-State, O=Internet Widgits Pty Ltd, CN=ginner
        Subject Public Key Info:
            Public Key Algorithm: rsaEncryption
                Public-Key: (2048 bit)
                Modulus:
                    00:d5:f0:76:01:34:55:af:14:b6:df:6e:48:d8:ad:
                    09:94:68:a8:2f:9e:6b:97:27:64:22:e7:00:99:ed:
                    3e:bc:c2:a9:81:d9:1f:d3:37:0f:28:99:a8:a7:e3:
                    75:25:6a:bf:84:11:26:0a:ac:b5:15:ec:0e:1c:0a:
                    2c:11:a0:2e:b0:ba:cc:37:39:54:ba:15:f4:32:7e:
                    58:25:53:5b:0d:09:ad:d0:41:2b:04:91:1b:33:bb:
                    08:a0:f1:11:0c:02:0e:7e:01:dd:7d:9a:1a:0b:9c:
                    1c:5f:d0:d4:1d:14:ec:4d:8e:34:86:f8:23:89:84:
                    dc:55:07:01:e8:16:ca:81:52:8c:0d:9a:f4:3a:bb:
                    ab:08:ab:38:6d:78:63:d1:1e:0b:ec:25:44:48:59:
                    ce:88:9a:db:4d:c4:52:ae:34:08:7c:55:4d:c8:2c:
                    db:75:b7:8a:5a:e2:b8:62:cb:17:81:76:61:56:74:
                    03:23:44:6d:70:a6:19:23:42:59:d8:1f:72:ef:f4:
                    93:54:aa:59:f9:7b:ae:c6:e8:df:14:1b:5e:31:88:
                    90:d8:bb:75:aa:ff:8b:ab:1f:8d:20:3d:fc:a7:14:
                    b0:d2:f0:5d:81:d6:3f:cb:31:3a:92:0c:c8:24:47:
                    ab:97:bd:d9:b6:53:5f:6f:a8:28:e6:9e:95:85:8a:
                    a1:a7
                Exponent: 65537 (0x10001)
    Signature Algorithm: sha256WithRSAEncryption
    Signature Value:
        66:be:9f:56:cb:f1:64:4d:c2:51:84:7b:a3:6e:54:d0:8d:4d:
        70:23:85:a4:d9:0d:bf:e9:da:be:fe:a7:94:63:fe:64:5f:3d:
        20:0c:aa:83:7e:c0:ad:24:39:b8:86:2a:61:e1:5a:b1:2b:08:
        df:3f:93:c7:9b:31:19:b0:9e:bf:65:96:b3:ec:7c:fd:94:fc:
        de:20:79:07:a3:7e:8e:f0:76:ec:8c:5a:28:28:46:44:ba:b0:
        e1:2e:1e:d5:32:ce:be:50:ea:d1:c6:be:1c:8a:4e:5c:c0:61:
        7d:3a:66:bc:6a:bf:ad:38:b5:c0:5d:7e:3e:bc:dc:2a:52:d8:
        34:f0:90:83:79:2e:de:39:3e:e9:2d:df:cf:29:13:4b:a8:a3:
        bb:1e:ce:5b:7c:42:58:43:26:a8:35:0b:85:a2:c0:52:74:8b:
        e2:1b:c3:8a:39:f8:07:46:c2:24:22:71:f1:87:e0:19:45:0a:
        44:b8:82:4a:63:b5:c7:80:d7:0c:63:97:2c:28:b2:e9:ca:9b:
        0a:2c:06:d7:17:42:2c:5d:ed:12:70:6e:36:58:4f:ab:81:a7:
        26:52:f2:5f:b1:e7:ed:5d:af:a3:37:23:c4:69:70:90:8c:9c:
        e4:60:c9:df:ed:18:f7:6c:c2:49:13:90:3b:40:c8:46:f3:06:
        d2:02:b5:61
-----BEGIN CERTIFICATE-----
MIIDDzCCAfcCAQEwDQYJKoZIhvcNAQELBQAwRTELMAkGA1UEBhMCREsxEzARBgNV
BAgMClNvbWUtU3RhdGUxEDAOBgNVBAoMB1ByaXZhdGUxDzANBgNVBAMMBmdpbm5l
cjAeFw0yMzExMDIyMDE4MDZaFw0yNDExMDEyMDE4MDZaMFYxCzAJBgNVBAYTAkRL
MRMwEQYDVQQIDApTb21lLVN0YXRlMSEwHwYDVQQKDBhJbnRlcm5ldCBXaWRnaXRz
IFB0eSBMdGQxDzANBgNVBAMMBmdpbm5lcjCCASIwDQYJKoZIhvcNAQEBBQADggEP
ADCCAQoCggEBANXwdgE0Va8Utt9uSNitCZRoqC+ea5cnZCLnAJntPrzCqYHZH9M3
DyiZqKfjdSVqv4QRJgqstRXsDhwKLBGgLrC6zDc5VLoV9DJ+WCVTWw0JrdBBKwSR
GzO7CKDxEQwCDn4B3X2aGgucHF/Q1B0U7E2ONIb4I4mE3FUHAegWyoFSjA2a9Dq7
qwirOG14Y9EeC+wlREhZzoia203EUq40CHxVTcgs23W3ilriuGLLF4F2YVZ0AyNE
bXCmGSNCWdgfcu/0k1SqWfl7rsbo3xQbXjGIkNi7dar/i6sfjSA9/KcUsNLwXYHW
P8sxOpIMyCRHq5e92bZTX2+oKOaelYWKoacCAwEAATANBgkqhkiG9w0BAQsFAAOC
AQEAZr6fVsvxZE3CUYR7o25U0I1NcCOFpNkNv+navv6nlGP+ZF89IAyqg37ArSQ5
uIYqYeFasSsI3z+Tx5sxGbCev2WWs+x8/ZT83iB5B6N+jvB27IxaKChGRLqw4S4e
1TLOvlDq0ca+HIpOXMBhfTpmvGq/rTi1wF1+PrzcKlLYNPCQg3ku3jk+6S3fzykT
S6ijux7OW3xCWEMmqDULhaLAUnSL4hvDijn4B0bCJCJx8YfgGUUKRLiCSmO1x4DX
DGOXLCiy6cqbCiwG1xdCLF3tEnBuNlhPq4GnJlLyX7Hn7V2vozcjxGlwkIyc5GDJ
3+0Y92zCSROQO0DIRvMG0gK1YQ==
-----END CERTIFICATE-----
